c__builtin__
set
p0
((lp1
(I1
I1
I1
I0
I0
tp2
a(I1
I1
I0
I1
I0
tp3
a(I0
I0
I1
I1
I0
tp4
a(I1
I1
I1
I1
I0
tp5
a(I0
I0
I0
I1
I1
tp6
a(I1
I1
I0
I1
I1
tp7
a(I0
I0
I1
I0
I1
tp8
a(I0
I1
I0
I1
I1
tp9
a(I1
I1
I1
I1
I1
tp10
a(I0
I0
I0
I0
I0
tp11
a(I0
I1
I1
I1
I0
tp12
a(I0
I0
I0
I0
I1
tp13
a(I1
I0
I1
I0
I0
tp14
a(I1
I1
I0
I0
I1
tp15
a(I0
I0
I1
I0
I0
tp16
a(I1
I0
I0
I0
I1
tp17
atp18
Rp19
.